(dp0
S'000004'
p1
(lp2
S'123456'
p3
aS'15000'
p4
aS'13000'
p5
asS'000005'
p6
(lp7
S'123456'
p8
aS'15000'
p9
aS'14000'
p10
asS'000002'
p11
(lp12
S'123456'
p13
aS'15000'
p14
aI10000
asS'000003'
p15
(lp16
S'123456'
p17
aS'15000'
p18
aS'12000'
p19
asS'000001'
p20
(lp21
S'123456'
p22
aS'15000'
p23
aS'15000'
p24
asS'000001-2'
p25
(lp26
S'123456'
p27
aS'15000'
p28
aS'11000'
p29
asS'000001-0'
p30
(lp31
S'123456'
p32
aS'15000'
p33
aS'9000'
p34
asS'000001-1'
p35
(lp36
S'123456'
p37
aS'15000'
p38
aS'10000'
p39
as.