(dp0
S'000004'
p1
(lp2
S'123456'
p3
aS'15000'
p4
aS'13000'
p5
asS'000005'
p6
(lp7
S'123456'
p8
aS'15000'
p9
aF13706.676
asS'000002'
p10
(lp11
S'123456'
p12
aS'15000'
p13
aS'8000'
p14
asS'000003'
p15
(lp16
S'123456'
p17
aS'15000'
p18
aS'12000'
p19
asS'000001'
p20
(lp21
S'123456'
p22
aS'15000'
p23
aS'4900.0'
p24
as.