(dp0
S'000004'
p1
(lp2
S'123456'
p3
aS'15000'
p4
aS'13000'
p5
asS'000005'
p6
(lp7
S'123456'
p8
aS'15000'
p9
aS'13706.676'
p10
asS'000002'
p11
(lp12
S'123456'
p13
aS'15000'
p14
aS'8000'
p15
asS'000003'
p16
(lp17
S'123456'
p18
aS'15000'
p19
aS'12000'
p20
asS'000001'
p21
(lp22
S'123456'
p23
aS'15000'
p24
aS'10964.0'
p25
as.